; Function Attrs: mustprogress nounwind uwtable
define internal void @_ZN12_GLOBAL__N_126CleanTest_CleanDyndep_TestD0Ev(ptr noundef nonnull align 8 dereferenceable(520) %0) unnamed_addr #7 align 2 {
  store ptr getelementptr inbounds ({ [8 x ptr] }, ptr @_ZTVN12_GLOBAL__N_19CleanTestE, i64 0, i32 0, i64 2), ptr %0, align 8
  %2 = getelementptr inbounds i8, ptr %0, i64 280
  tail call void @_ZN17VirtualFileSystemD2Ev(ptr noundef nonnull align 8 dereferenceable(204) %2) #20
  store ptr getelementptr inbounds ({ [8 x ptr] }, ptr @_ZTV25StateTestWithBuiltinRules, i64 0, i32 0, i64 2), ptr %0, align 8
  %3 = getelementptr inbounds i8, ptr %0, i64 16
  tail call void @_ZN5StateD2Ev(ptr noundef nonnull align 8 dereferenceable(264) %3) #20
  tail call void @_ZN7testing4TestD2Ev(ptr noundef nonnull align 8 dereferenceable(16) %0) #20
  tail call void @_ZdlPv(ptr noundef nonnull %0) #21
  ret void
}